target datalayout = "e-m:e-p270:32:32-p271:32:32-p272:64:64-i64:64-i128:128-f80:128-n8:16:32:64-S128"
target triple = "x86_64-pc-linux-gnu"

%class.Metadata = type { ptr }
%class.AccessFlags = type { i32 }
%class.Method = type { %class.Metadata, ptr, ptr, ptr, ptr, %class.AccessFlags, i32, %class.MethodFlags, i16, %class.JfrTraceFlag, ptr, ptr, ptr, ptr }
%class.MethodFlags = type { i32 }
%class.JfrTraceFlag = type { i16 }
%class.ConstMethod = type <{ i64, ptr, ptr, i32, %class.ConstMethodFlags, i8, i8, i16, i16, i16, i16, i16, i16, i16, i16, i16, [4 x i8] }>
%class.ConstMethodFlags = type { i32 }

@_ZN9Bytecodes10_java_codeE = external constant [239 x i32], align 16

; Function Attrs: mustprogress nounwind uwtable
define linkonce_odr hidden void @_ZN9Bytecodes5checkENS_4CodeE(i32 noundef %0) #1 comdat align 2 {
  %2 = alloca i32, align 4
  store i32 %0, ptr %2, align 4
  ret void
}

; Function Attrs: mustprogress nounwind uwtable
define linkonce_odr hidden noundef i32 @_ZN9Bytecodes4castEi(i32 noundef %0) #1 comdat align 2 {
  %2 = alloca i32, align 4
  store i32 %0, ptr %2, align 4
  %3 = load i32, ptr %2, align 4
  ret i32 %3
}

; Function Attrs: mustprogress nounwind uwtable
define linkonce_odr hidden noundef ptr @_ZNK11ConstMethod9code_baseEv(ptr noundef nonnull align 8 dereferenceable(52) %0) #1 comdat align 2 {
  %2 = alloca ptr, align 8
  store ptr %0, ptr %2, align 8
  %3 = load ptr, ptr %2, align 8
  %4 = getelementptr inbounds %class.ConstMethod, ptr %3, i64 1
  ret ptr %4
}

; Function Attrs: mustprogress nounwind uwtable
define linkonce_odr hidden noundef i32 @_ZN9Bytecodes9java_codeENS_4CodeE(i32 noundef %0) #1 comdat align 2 {
  %2 = alloca i32, align 4
  store i32 %0, ptr %2, align 4
  %3 = load i32, ptr %2, align 4
  call void @_ZN9Bytecodes5checkENS_4CodeE(i32 noundef %3)
  %4 = load i32, ptr %2, align 4
  %5 = sext i32 %4 to i64
  %6 = getelementptr inbounds [239 x i32], ptr @_ZN9Bytecodes10_java_codeE, i64 0, i64 %5
  %7 = load i32, ptr %6, align 4
  ret i32 %7
}

; Function Attrs: mustprogress nounwind uwtable
define linkonce_odr hidden noundef i32 @_ZN9Bytecodes7code_atEPK6MethodPh(ptr noundef %0, ptr noundef %1) #1 comdat align 2 {
  %3 = alloca ptr, align 8
  %4 = alloca ptr, align 8
  %5 = alloca i32, align 4
  store ptr %0, ptr %3, align 8
  store ptr %1, ptr %4, align 8
  %6 = load ptr, ptr %4, align 8
  %7 = load i8, ptr %6, align 1
  %8 = zext i8 %7 to i32
  %9 = call noundef i32 @_ZN9Bytecodes4castEi(i32 noundef %8)
  store i32 %9, ptr %5, align 4
  %10 = load i32, ptr %5, align 4
  %11 = icmp ne i32 %10, 202
  br i1 %11, label %12, label %14

12:                                               ; preds = %2
  %13 = load i32, ptr %5, align 4
  br label %18

14:                                               ; preds = %2
  %15 = load ptr, ptr %3, align 8
  %16 = load ptr, ptr %4, align 8
  %17 = call noundef i32 @_ZN9Bytecodes22non_breakpoint_code_atEPK6MethodPh(ptr noundef %15, ptr noundef %16)
  br label %18

18:                                               ; preds = %14, %12
  %19 = phi i32 [ %13, %12 ], [ %17, %14 ]
  ret i32 %19
}

; Function Attrs: mustprogress nounwind uwtable
define linkonce_odr hidden noundef ptr @_ZNK6Method9code_baseEv(ptr noundef nonnull align 8 dereferenceable(88) %0) #1 comdat align 2 {
  %2 = alloca ptr, align 8
  store ptr %0, ptr %2, align 8
  %3 = load ptr, ptr %2, align 8
  %4 = call noundef ptr @_ZNK6Method11constMethodEv(ptr noundef nonnull align 8 dereferenceable(88) %3)
  %5 = call noundef ptr @_ZNK11ConstMethod9code_baseEv(ptr noundef nonnull align 8 dereferenceable(52) %4)
  ret ptr %5
}

; Function Attrs: mustprogress nounwind uwtable
define linkonce_odr hidden noundef zeroext i16 @_ZNK11ConstMethod18size_of_parametersEv(ptr noundef nonnull align 8 dereferenceable(52) %0) #1 comdat align 2 {
  %2 = alloca ptr, align 8
  store ptr %0, ptr %2, align 8
  %3 = load ptr, ptr %2, align 8
  %4 = getelementptr inbounds %class.ConstMethod, ptr %3, i32 0, i32 13
  %5 = load i16, ptr %4, align 2
  ret i16 %5
}

; Function Attrs: mustprogress nounwind uwtable
define linkonce_odr hidden noundef i32 @_ZN9Bytecodes12java_code_atEPK6MethodPh(ptr noundef %0, ptr noundef %1) #1 comdat align 2 {
  %3 = alloca ptr, align 8
  %4 = alloca ptr, align 8
  store ptr %0, ptr %3, align 8
  store ptr %1, ptr %4, align 8
  %5 = load ptr, ptr %3, align 8
  %6 = load ptr, ptr %4, align 8
  %7 = call noundef i32 @_ZN9Bytecodes7code_atEPK6MethodPh(ptr noundef %5, ptr noundef %6)
  %8 = call noundef i32 @_ZN9Bytecodes9java_codeENS_4CodeE(i32 noundef %7)
  ret i32 %8
}

; Function Attrs: mustprogress nounwind uwtable
define hidden noundef ptr @_ZNK6Method8bcp_fromEi(ptr noundef nonnull align 8 dereferenceable(88) %0, i32 noundef %1) #1 align 2 {
  %3 = alloca ptr, align 8
  %4 = alloca i32, align 4
  %5 = alloca ptr, align 8
  store ptr %0, ptr %3, align 8
  store i32 %1, ptr %4, align 4
  %6 = load ptr, ptr %3, align 8
  %7 = call noundef ptr @_ZNK6Method9code_baseEv(ptr noundef nonnull align 8 dereferenceable(88) %6)
  %8 = load i32, ptr %4, align 4
  %9 = sext i32 %8 to i64
  %10 = getelementptr inbounds i8, ptr %7, i64 %9
  store ptr %10, ptr %5, align 8
  %11 = load ptr, ptr %5, align 8
  ret ptr %11
}

; Function Attrs: mustprogress nounwind uwtable
define linkonce_odr hidden noundef zeroext i16 @_ZNK11ConstMethod9code_sizeEv(ptr noundef nonnull align 8 dereferenceable(52) %0) #1 comdat align 2 {
  %2 = alloca ptr, align 8
  store ptr %0, ptr %2, align 8
  %3 = load ptr, ptr %2, align 8
  %4 = getelementptr inbounds %class.ConstMethod, ptr %3, i32 0, i32 7
  %5 = load i16, ptr %4, align 2
  ret i16 %5
}

; Function Attrs: mustprogress nounwind uwtable
define linkonce_odr hidden noundef ptr @_ZNK6Method11constMethodEv(ptr noundef nonnull align 8 dereferenceable(88) %0) #1 comdat align 2 {
  %2 = alloca ptr, align 8
  store ptr %0, ptr %2, align 8
  %3 = load ptr, ptr %2, align 8
  %4 = getelementptr inbounds %class.Method, ptr %3, i32 0, i32 1
  %5 = load ptr, ptr %4, align 8
  ret ptr %5
}

; Function Attrs: mustprogress nounwind uwtable
define linkonce_odr hidden noundef zeroext i16 @_ZNK6Method18size_of_parametersEv(ptr noundef nonnull align 8 dereferenceable(88) %0) #1 comdat align 2 {
  %2 = alloca ptr, align 8
  store ptr %0, ptr %2, align 8
  %3 = load ptr, ptr %2, align 8
  %4 = call noundef ptr @_ZNK6Method11constMethodEv(ptr noundef nonnull align 8 dereferenceable(88) %3)
  %5 = call noundef zeroext i16 @_ZNK11ConstMethod18size_of_parametersEv(ptr noundef nonnull align 8 dereferenceable(52) %4)
  ret i16 %5
}

; Function Attrs: mustprogress nounwind uwtable
define linkonce_odr hidden noundef i32 @_ZNK6Method12java_code_atEi(ptr noundef nonnull align 8 dereferenceable(88) %0, i32 noundef %1) #1 comdat align 2 {
  %3 = alloca ptr, align 8
  %4 = alloca i32, align 4
  store ptr %0, ptr %3, align 8
  store i32 %1, ptr %4, align 4
  %5 = load ptr, ptr %3, align 8
  %6 = load i32, ptr %4, align 4
  %7 = call noundef ptr @_ZNK6Method8bcp_fromEi(ptr noundef nonnull align 8 dereferenceable(88) %5, i32 noundef %6)
  %8 = call noundef i32 @_ZN9Bytecodes12java_code_atEPK6MethodPh(ptr noundef %5, ptr noundef %7)
  ret i32 %8
}

; Function Attrs: mustprogress nounwind uwtable
define linkonce_odr hidden noundef zeroext i16 @_ZNK6Method9code_sizeEv(ptr noundef nonnull align 8 dereferenceable(88) %0) #1 comdat align 2 {
  %2 = alloca ptr, align 8
  store ptr %0, ptr %2, align 8
  %3 = load ptr, ptr %2, align 8
  %4 = call noundef ptr @_ZNK6Method11constMethodEv(ptr noundef nonnull align 8 dereferenceable(88) %3)
  %5 = call noundef zeroext i16 @_ZNK11ConstMethod9code_sizeEv(ptr noundef nonnull align 8 dereferenceable(52) %4)
  ret i16 %5
}

; Function Attrs: mustprogress nounwind uwtable
define hidden noundef zeroext i1 @_ZNK6Method9is_setterEv(ptr noundef nonnull align 8 dereferenceable(88) %0) #1 align 2 {
  %2 = alloca i1, align 1
  %3 = alloca ptr, align 8
  store ptr %0, ptr %3, align 8
  %4 = load ptr, ptr %3, align 8
  %5 = call noundef zeroext i16 @_ZNK6Method9code_sizeEv(ptr noundef nonnull align 8 dereferenceable(88) %4)
  %6 = zext i16 %5 to i32
  %7 = icmp ne i32 %6, 6
  br i1 %7, label %8, label %9

8:                                                ; preds = %1
  store i1 false, ptr %2, align 1
  br label %37

9:                                                ; preds = %1
  %10 = call noundef i32 @_ZNK6Method12java_code_atEi(ptr noundef nonnull align 8 dereferenceable(88) %4, i32 noundef 0)
  %11 = icmp ne i32 %10, 42
  br i1 %11, label %12, label %13

12:                                               ; preds = %9
  store i1 false, ptr %2, align 1
  br label %37

13:                                               ; preds = %9
  %14 = call noundef i32 @_ZNK6Method12java_code_atEi(ptr noundef nonnull align 8 dereferenceable(88) %4, i32 noundef 1)
  switch i32 %14, label %27 [
    i32 27, label %15
    i32 43, label %15
    i32 35, label %15
    i32 39, label %21
    i32 31, label %21
  ]

15:                                               ; preds = %13, %13, %13
  %16 = call noundef zeroext i16 @_ZNK6Method18size_of_parametersEv(ptr noundef nonnull align 8 dereferenceable(88) %4)
  %17 = zext i16 %16 to i32
  %18 = icmp ne i32 %17, 2
  br i1 %18, label %19, label %20

19:                                               ; preds = %15
  store i1 false, ptr %2, align 1
  br label %37

20:                                               ; preds = %15
  br label %28

21:                                               ; preds = %13, %13
  %22 = call noundef zeroext i16 @_ZNK6Method18size_of_parametersEv(ptr noundef nonnull align 8 dereferenceable(88) %4)
  %23 = zext i16 %22 to i32
  %24 = icmp ne i32 %23, 3
  br i1 %24, label %25, label %26

25:                                               ; preds = %21
  store i1 false, ptr %2, align 1
  br label %37

26:                                               ; preds = %21
  br label %28

27:                                               ; preds = %13
  store i1 false, ptr %2, align 1
  br label %37

28:                                               ; preds = %26, %20
  %29 = call noundef i32 @_ZNK6Method12java_code_atEi(ptr noundef nonnull align 8 dereferenceable(88) %4, i32 noundef 2)
  %30 = icmp ne i32 %29, 181
  br i1 %30, label %31, label %32

31:                                               ; preds = %28
  store i1 false, ptr %2, align 1
  br label %37

32:                                               ; preds = %28
  %33 = call noundef i32 @_ZNK6Method12java_code_atEi(ptr noundef nonnull align 8 dereferenceable(88) %4, i32 noundef 5)
  %34 = icmp ne i32 %33, 177
  br i1 %34, label %35, label %36

35:                                               ; preds = %32
  store i1 false, ptr %2, align 1
  br label %37

36:                                               ; preds = %32
  store i1 true, ptr %2, align 1
  br label %37

37:                                               ; preds = %36, %35, %31, %27, %25, %19, %12, %8
  %38 = load i1, ptr %2, align 1
  ret i1 %38
}