; Function Attrs: mustprogress nounwind uwtable
define hidden noundef zeroext i1 @_ZNK6Method9is_setterEv(ptr noundef nonnull align 8 dereferenceable(88) %0) local_unnamed_addr #0 align 2 {
  %2 = getelementptr inbounds i8, ptr %0, i64 8
  %3 = load ptr, ptr %2, align 8
  %4 = getelementptr inbounds i8, ptr %3, i64 34
  %5 = load i16, ptr %4, align 2
  %.not = icmp eq i16 %5, 6
  br i1 %.not, label %6, label %59

6:                                                ; preds = %1
  %7 = getelementptr inbounds i8, ptr %3, i64 56
  %8 = load i8, ptr %7, align 1
  %9 = zext i8 %8 to i32
  %.not.i.i.i = icmp eq i8 %8, -54
  br i1 %.not.i.i.i, label %10, label %_ZNK6Method12java_code_atEi.exit

10:                                               ; preds = %6
  %11 = tail call noundef i32 @_ZN9Bytecodes22non_breakpoint_code_atEPK6MethodPh(ptr noundef nonnull %0, ptr noundef nonnull %7) #23
  br label %_ZNK6Method12java_code_atEi.exit

_ZNK6Method12java_code_atEi.exit:                 ; preds = %6, %10
  %12 = phi i32 [ %11, %10 ], [ %9, %6 ]
  %13 = sext i32 %12 to i64
  %14 = getelementptr inbounds [239 x i32], ptr @_ZN9Bytecodes10_java_codeE, i64 0, i64 %13
  %15 = load i32, ptr %14, align 4
  %.not2 = icmp eq i32 %15, 42
  br i1 %.not2, label %16, label %59

16:                                               ; preds = %_ZNK6Method12java_code_atEi.exit
  %17 = load ptr, ptr %2, align 8
  %18 = getelementptr inbounds i8, ptr %17, i64 57
  %19 = load i8, ptr %18, align 1
  %20 = zext i8 %19 to i32
  %.not.i.i.i7 = icmp eq i8 %19, -54
  br i1 %.not.i.i.i7, label %21, label %_ZNK6Method12java_code_atEi.exit8

21:                                               ; preds = %16
  %22 = tail call noundef i32 @_ZN9Bytecodes22non_breakpoint_code_atEPK6MethodPh(ptr noundef nonnull %0, ptr noundef nonnull %18) #23
  br label %_ZNK6Method12java_code_atEi.exit8

_ZNK6Method12java_code_atEi.exit8:                ; preds = %16, %21
  %23 = phi i32 [ %22, %21 ], [ %20, %16 ]
  %24 = sext i32 %23 to i64
  %25 = getelementptr inbounds [239 x i32], ptr @_ZN9Bytecodes10_java_codeE, i64 0, i64 %24
  %26 = load i32, ptr %25, align 4
  %27 = add i32 %26, -27
  %28 = tail call i32 @llvm.fshl.i32(i32 %27, i32 %27, i32 30)
  switch i32 %28, label %59 [
    i32 0, label %29
    i32 4, label %29
    i32 2, label %29
    i32 3, label %33
    i32 1, label %33
  ]

29:                                               ; preds = %_ZNK6Method12java_code_atEi.exit8, %_ZNK6Method12java_code_atEi.exit8, %_ZNK6Method12java_code_atEi.exit8
  %30 = load ptr, ptr %2, align 8
  %31 = getelementptr inbounds i8, ptr %30, i64 46
  %32 = load i16, ptr %31, align 2
  %.not4 = icmp eq i16 %32, 2
  br i1 %.not4, label %37, label %59

33:                                               ; preds = %_ZNK6Method12java_code_atEi.exit8, %_ZNK6Method12java_code_atEi.exit8
  %34 = load ptr, ptr %2, align 8
  %35 = getelementptr inbounds i8, ptr %34, i64 46
  %36 = load i16, ptr %35, align 2
  %.not3 = icmp eq i16 %36, 3
  br i1 %.not3, label %37, label %59

37:                                               ; preds = %33, %29
  %38 = phi ptr [ %34, %33 ], [ %30, %29 ]
  %39 = getelementptr inbounds i8, ptr %38, i64 58
  %40 = load i8, ptr %39, align 1
  %41 = zext i8 %40 to i32
  %.not.i.i.i9 = icmp eq i8 %40, -54
  br i1 %.not.i.i.i9, label %42, label %_ZNK6Method12java_code_atEi.exit10

42:                                               ; preds = %37
  %43 = tail call noundef i32 @_ZN9Bytecodes22non_breakpoint_code_atEPK6MethodPh(ptr noundef nonnull %0, ptr noundef nonnull %39) #23
  br label %_ZNK6Method12java_code_atEi.exit10

_ZNK6Method12java_code_atEi.exit10:               ; preds = %37, %42
  %44 = phi i32 [ %43, %42 ], [ %41, %37 ]
  %45 = sext i32 %44 to i64
  %46 = getelementptr inbounds [239 x i32], ptr @_ZN9Bytecodes10_java_codeE, i64 0, i64 %45
  %47 = load i32, ptr %46, align 4
  %.not5 = icmp eq i32 %47, 181
  br i1 %.not5, label %48, label %59

48:                                               ; preds = %_ZNK6Method12java_code_atEi.exit10
  %49 = load ptr, ptr %2, align 8
  %50 = getelementptr inbounds i8, ptr %49, i64 61
  %51 = load i8, ptr %50, align 1
  %52 = zext i8 %51 to i32
  %.not.i.i.i11 = icmp eq i8 %51, -54
  br i1 %.not.i.i.i11, label %53, label %_ZNK6Method12java_code_atEi.exit12

53:                                               ; preds = %48
  %54 = tail call noundef i32 @_ZN9Bytecodes22non_breakpoint_code_atEPK6MethodPh(ptr noundef nonnull %0, ptr noundef nonnull %50) #23
  br label %_ZNK6Method12java_code_atEi.exit12

_ZNK6Method12java_code_atEi.exit12:               ; preds = %48, %53
  %55 = phi i32 [ %54, %53 ], [ %52, %48 ]
  %56 = sext i32 %55 to i64
  %57 = getelementptr inbounds [239 x i32], ptr @_ZN9Bytecodes10_java_codeE, i64 0, i64 %56
  %58 = load i32, ptr %57, align 4
  %.not6 = icmp eq i32 %58, 177
  br label %59

59:                                               ; preds = %_ZNK6Method12java_code_atEi.exit12, %_ZNK6Method12java_code_atEi.exit10, %_ZNK6Method12java_code_atEi.exit8, %33, %29, %_ZNK6Method12java_code_atEi.exit, %1
  %.0 = phi i1 [ false, %1 ], [ false, %_ZNK6Method12java_code_atEi.exit ], [ false, %29 ], [ false, %33 ], [ false, %_ZNK6Method12java_code_atEi.exit8 ], [ false, %_ZNK6Method12java_code_atEi.exit10 ], [ %.not6, %_ZNK6Method12java_code_atEi.exit12 ]
  ret i1 %.0
}